; ModuleID = '53/1.c'
source_filename = "53/1.c"
target datalayout = "e-m:e-p270:32:32-p271:32:32-p272:64:64-i64:64-f80:128-n8:16:32:64-S128"
target triple = "x86_64-pc-linux-gnu"

@.str = private unnamed_addr constant [3 x i8] c"%d\00", align 1
@.str.1 = private unnamed_addr constant [4 x i8] c",%d\00", align 1

; Function Attrs: noinline nounwind uwtable
define dso_local i32 @main() #0 {
  %1 = alloca i32, align 4
  %2 = alloca i32, align 4
  %3 = alloca i32, align 4
  %4 = alloca i32, align 4
  %5 = alloca i32, align 4
  %6 = alloca [300 x i32], align 16
  %7 = alloca [300 x i32], align 16
  store i32 0, i32* %1, align 4
  %8 = call i32 (i8*, ...) @__isoc99_scanf(i8* getelementptr inbounds ([3 x i8], [3 x i8]* @.str, i64 0, i64 0), i32* %3)
  store i32 0, i32* %4, align 4
  br label %9

9:                                                ; preds = %57, %0
  %10 = load i32, i32* %4, align 4
  %11 = load i32, i32* %3, align 4
  %12 = icmp slt i32 %10, %11
  br i1 %12, label %13, label %60

13:                                               ; preds = %9
  %14 = call i32 (i8*, ...) @__isoc99_scanf(i8* getelementptr inbounds ([3 x i8], [3 x i8]* @.str, i64 0, i64 0), i32* %2)
  %15 = load i32, i32* %2, align 4
  %16 = load i32, i32* %4, align 4
  %17 = sext i32 %16 to i64
  %18 = getelementptr inbounds [300 x i32], [300 x i32]* %6, i64 0, i64 %17
  store i32 %15, i32* %18, align 4
  %19 = load i32, i32* %4, align 4
  %20 = sext i32 %19 to i64
  %21 = getelementptr inbounds [300 x i32], [300 x i32]* %7, i64 0, i64 %20
  store i32 0, i32* %21, align 4
  %22 = load i32, i32* %4, align 4
  %23 = sub nsw i32 %22, 1
  store i32 %23, i32* %5, align 4
  br label %24

24:                                               ; preds = %39, %13
  %25 = load i32, i32* %5, align 4
  %26 = icmp sge i32 %25, 0
  br i1 %26, label %27, label %37

27:                                               ; preds = %24
  %28 = load i32, i32* %5, align 4
  %29 = sext i32 %28 to i64
  %30 = getelementptr inbounds [300 x i32], [300 x i32]* %6, i64 0, i64 %29
  %31 = load i32, i32* %30, align 4
  %32 = load i32, i32* %4, align 4
  %33 = sext i32 %32 to i64
  %34 = getelementptr inbounds [300 x i32], [300 x i32]* %6, i64 0, i64 %33
  %35 = load i32, i32* %34, align 4
  %36 = icmp ne i32 %31, %35
  br label %37

37:                                               ; preds = %27, %24
  %38 = phi i1 [ false, %24 ], [ %36, %27 ]
  br i1 %38, label %39, label %42

39:                                               ; preds = %37
  %40 = load i32, i32* %5, align 4
  %41 = add nsw i32 %40, -1
  store i32 %41, i32* %5, align 4
  br label %24

42:                                               ; preds = %37
  %43 = load i32, i32* %5, align 4
  %44 = sext i32 %43 to i64
  %45 = getelementptr inbounds [300 x i32], [300 x i32]* %6, i64 0, i64 %44
  %46 = load i32, i32* %45, align 4
  %47 = load i32, i32* %4, align 4
  %48 = sext i32 %47 to i64
  %49 = getelementptr inbounds [300 x i32], [300 x i32]* %6, i64 0, i64 %48
  %50 = load i32, i32* %49, align 4
  %51 = icmp eq i32 %46, %50
  br i1 %51, label %52, label %56

52:                                               ; preds = %42
  %53 = load i32, i32* %4, align 4
  %54 = sext i32 %53 to i64
  %55 = getelementptr inbounds [300 x i32], [300 x i32]* %7, i64 0, i64 %54
  store i32 1, i32* %55, align 4
  br label %56

56:                                               ; preds = %52, %42
  br label %57

57:                                               ; preds = %56
  %58 = load i32, i32* %4, align 4
  %59 = add nsw i32 %58, 1
  store i32 %59, i32* %4, align 4
  br label %9

60:                                               ; preds = %9
  %61 = getelementptr inbounds [300 x i32], [300 x i32]* %6, i64 0, i64 0
  %62 = load i32, i32* %61, align 16
  %63 = call i32 (i8*, ...) @printf(i8* getelementptr inbounds ([3 x i8], [3 x i8]* @.str, i64 0, i64 0), i32 %62)
  store i32 1, i32* %4, align 4
  br label %64

64:                                               ; preds = %81, %60
  %65 = load i32, i32* %4, align 4
  %66 = load i32, i32* %3, align 4
  %67 = icmp slt i32 %65, %66
  br i1 %67, label %68, label %84

68:                                               ; preds = %64
  %69 = load i32, i32* %4, align 4
  %70 = sext i32 %69 to i64
  %71 = getelementptr inbounds [300 x i32], [300 x i32]* %7, i64 0, i64 %70
  %72 = load i32, i32* %71, align 4
  %73 = icmp eq i32 %72, 0
  br i1 %73, label %74, label %80

74:                                               ; preds = %68
  %75 = load i32, i32* %4, align 4
  %76 = sext i32 %75 to i64
  %77 = getelementptr inbounds [300 x i32], [300 x i32]* %6, i64 0, i64 %76
  %78 = load i32, i32* %77, align 4
  %79 = call i32 (i8*, ...) @printf(i8* getelementptr inbounds ([4 x i8], [4 x i8]* @.str.1, i64 0, i64 0), i32 %78)
  br label %80

80:                                               ; preds = %74, %68
  br label %81

81:                                               ; preds = %80
  %82 = load i32, i32* %4, align 4
  %83 = add nsw i32 %82, 1
  store i32 %83, i32* %4, align 4
  br label %64

84:                                               ; preds = %64
  %85 = load i32, i32* %1, align 4
  ret i32 %85
}

declare dso_local i32 @__isoc99_scanf(i8*, ...) #1

declare dso_local i32 @printf(i8*, ...) #1


!llvm.module.flags = !{!0}
!llvm.ident = !{!1}

!0 = !{i32 1, !"wchar_size", i32 4}
!1 = !{!"clang version 10.0.0-4ubuntu1 "}
