; ModuleID = 'source-C-CXX/52/1.c'
source_filename = "source-C-CXX/52/1.c"
target datalayout = "e-m:e-p270:32:32-p271:32:32-p272:64:64-i64:64-f80:128-n8:16:32:64-S128"
target triple = "x86_64-pc-linux-gnu"

@.str = private unnamed_addr constant [3 x i8] c"%d\00", align 1
@.str.1 = private unnamed_addr constant [4 x i8] c",%d\00", align 1

; Function Attrs: nofree nounwind sspstrong uwtable
define dso_local i32 @main() local_unnamed_addr #0 {
  %1 = alloca i32, align 4
  %2 = alloca i32, align 4
  %3 = alloca [300 x i32], align 16
  %4 = alloca [300 x i32], align 16
  %5 = bitcast i32* %1 to i8*
  call void @llvm.lifetime.start.p0i8(i64 4, i8* nonnull %5) #3
  %6 = bitcast i32* %2 to i8*
  call void @llvm.lifetime.start.p0i8(i64 4, i8* nonnull %6) #3
  %7 = bitcast [300 x i32]* %3 to i8*
  call void @llvm.lifetime.start.p0i8(i64 1200, i8* nonnull %7) #3
  %8 = bitcast [300 x i32]* %4 to i8*
  call void @llvm.lifetime.start.p0i8(i64 1200, i8* nonnull %8) #3
  %9 = call i32 (i8*, ...) @__isoc99_scanf(i8* getelementptr inbounds ([3 x i8], [3 x i8]* @.str, i64 0, i64 0), i32* nonnull %2)
  %10 = load i32, i32* %2, align 4, !tbaa !5
  %11 = icmp sgt i32 %10, 0
  br i1 %11, label %12, label %44

12:                                               ; preds = %0, %36
  %13 = phi i64 [ %37, %36 ], [ 0, %0 ]
  %14 = call i32 (i8*, ...) @__isoc99_scanf(i8* getelementptr inbounds ([3 x i8], [3 x i8]* @.str, i64 0, i64 0), i32* nonnull %1)
  %15 = load i32, i32* %1, align 4, !tbaa !5
  %16 = getelementptr inbounds [300 x i32], [300 x i32]* %3, i64 0, i64 %13
  store i32 %15, i32* %16, align 4, !tbaa !5
  %17 = getelementptr inbounds [300 x i32], [300 x i32]* %4, i64 0, i64 %13
  store i32 0, i32* %17, align 4, !tbaa !5
  br label %18

18:                                               ; preds = %23, %12
  %19 = phi i64 [ %28, %23 ], [ %13, %12 ]
  %20 = trunc i64 %19 to i32
  %21 = add nsw i32 %20, -1
  %22 = icmp sgt i64 %19, 0
  br i1 %22, label %23, label %29

23:                                               ; preds = %18
  %24 = zext i32 %21 to i64
  %25 = getelementptr inbounds [300 x i32], [300 x i32]* %3, i64 0, i64 %24
  %26 = load i32, i32* %25, align 4, !tbaa !5
  %27 = icmp eq i32 %26, %15
  %28 = add nsw i64 %19, -1
  br i1 %27, label %29, label %18, !llvm.loop !9

29:                                               ; preds = %18, %23
  %30 = phi i32 [ -1, %18 ], [ %21, %23 ]
  %31 = sext i32 %30 to i64
  %32 = getelementptr inbounds [300 x i32], [300 x i32]* %3, i64 0, i64 %31
  %33 = load i32, i32* %32, align 4, !tbaa !5
  %34 = icmp eq i32 %33, %15
  br i1 %34, label %35, label %36

35:                                               ; preds = %29
  store i32 1, i32* %17, align 4, !tbaa !5
  br label %36

36:                                               ; preds = %29, %35
  %37 = add nuw nsw i64 %13, 1
  %38 = load i32, i32* %2, align 4, !tbaa !5
  %39 = sext i32 %38 to i64
  %40 = icmp slt i64 %37, %39
  br i1 %40, label %12, label %41, !llvm.loop !11

41:                                               ; preds = %36
  %42 = getelementptr inbounds [300 x i32], [300 x i32]* %3, i64 0, i64 0
  %43 = load i32, i32* %42, align 16, !tbaa !5
  br label %44

44:                                               ; preds = %41, %0
  %45 = phi i32 [ %43, %41 ], [ undef, %0 ]
  %46 = call i32 (i8*, ...) @printf(i8* nonnull dereferenceable(1) getelementptr inbounds ([3 x i8], [3 x i8]* @.str, i64 0, i64 0), i32 %45)
  %47 = load i32, i32* %2, align 4, !tbaa !5
  %48 = icmp sgt i32 %47, 1
  br i1 %48, label %49, label %65

49:                                               ; preds = %44, %60
  %50 = phi i32 [ %61, %60 ], [ %47, %44 ]
  %51 = phi i64 [ %62, %60 ], [ 1, %44 ]
  %52 = getelementptr inbounds [300 x i32], [300 x i32]* %4, i64 0, i64 %51
  %53 = load i32, i32* %52, align 4, !tbaa !5
  %54 = icmp eq i32 %53, 0
  br i1 %54, label %55, label %60

55:                                               ; preds = %49
  %56 = getelementptr inbounds [300 x i32], [300 x i32]* %3, i64 0, i64 %51
  %57 = load i32, i32* %56, align 4, !tbaa !5
  %58 = call i32 (i8*, ...) @printf(i8* nonnull dereferenceable(1) getelementptr inbounds ([4 x i8], [4 x i8]* @.str.1, i64 0, i64 0), i32 %57)
  %59 = load i32, i32* %2, align 4, !tbaa !5
  br label %60

60:                                               ; preds = %49, %55
  %61 = phi i32 [ %50, %49 ], [ %59, %55 ]
  %62 = add nuw nsw i64 %51, 1
  %63 = sext i32 %61 to i64
  %64 = icmp slt i64 %62, %63
  br i1 %64, label %49, label %65, !llvm.loop !12

65:                                               ; preds = %60, %44
  call void @llvm.lifetime.end.p0i8(i64 1200, i8* nonnull %8) #3
  call void @llvm.lifetime.end.p0i8(i64 1200, i8* nonnull %7) #3
  call void @llvm.lifetime.end.p0i8(i64 4, i8* nonnull %6) #3
  call void @llvm.lifetime.end.p0i8(i64 4, i8* nonnull %5) #3
  ret i32 0
}

; Function Attrs: argmemonly mustprogress nofree nosync nounwind willreturn
declare void @llvm.lifetime.start.p0i8(i64 immarg, i8* nocapture) #1

; Function Attrs: nofree nounwind
declare noundef i32 @__isoc99_scanf(i8* nocapture noundef readonly, ...) local_unnamed_addr #2

; Function Attrs: nofree nounwind
declare noundef i32 @printf(i8* nocapture noundef readonly, ...) local_unnamed_addr #2

; Function Attrs: argmemonly mustprogress nofree nosync nounwind willreturn
declare void @llvm.lifetime.end.p0i8(i64 immarg, i8* nocapture) #1


!llvm.module.flags = !{!0, !1, !2, !3}
!llvm.ident = !{!4}

!0 = !{i32 1, !"wchar_size", i32 4}
!1 = !{i32 7, !"PIC Level", i32 2}
!2 = !{i32 7, !"PIE Level", i32 2}
!3 = !{i32 7, !"uwtable", i32 1}
!4 = !{!"clang version 13.0.0"}
!5 = !{!6, !6, i64 0}
!6 = !{!"int", !7, i64 0}
!7 = !{!"omnipotent char", !8, i64 0}
!8 = !{!"Simple C/C++ TBAA"}
!9 = distinct !{!9, !10}
!10 = !{!"llvm.loop.mustprogress"}
!11 = distinct !{!11, !10}
!12 = distinct !{!12, !10}
